Certificate:
    Data:
        Version: 3 (0x2)
        Serial Number: 1 (0x1)
        Signature Algorithm: sha512WithRSAEncryption
        Issuer: CN=ExampleCA
        Validity
            Not Before: Nov  4 15:23:43 2024 GMT
            Not After : Nov  4 15:23:43 2025 GMT
        Subject: C=IT, ST=Lazio, L=Rome, O=CyberITS, CN=localhost
        Subject Public Key Info:
            Public Key Algorithm: rsaEncryption
                Public-Key: (2048 bit)
                Modulus:
                    00:df:ea:50:5d:7e:bc:72:35:59:91:89:3a:e5:2b:
                    cb:24:51:f6:b8:38:84:2e:02:dc:0d:bf:ad:51:c8:
                    ea:ff:2e:66:35:20:ec:3f:3f:81:28:e9:5e:12:f3:
                    c8:6d:db:18:22:e4:8e:31:fc:83:53:f3:71:22:e9:
                    e3:54:c2:f0:5d:62:f7:0e:e0:7c:26:18:40:fc:05:
                    63:ed:2b:e4:ca:14:6d:b0:e1:65:7d:10:8b:ff:2b:
                    7d:6d:96:50:44:cc:a4:d2:c3:4f:5e:c4:cd:6f:67:
                    2d:a3:da:10:5d:bc:e5:c1:43:a8:d5:3c:4a:94:6c:
                    be:ac:f2:30:95:94:6e:4a:e8:a2:3d:99:c2:48:a8:
                    ff:4c:3d:46:9f:3e:d4:13:b9:cc:fd:eb:2e:d0:d7:
                    96:72:06:a1:b5:09:8d:ed:4d:2b:23:c7:a6:21:05:
                    af:92:1c:81:70:1a:3c:3e:3f:2f:66:c4:c0:5f:e3:
                    d5:76:6f:68:50:fe:f2:3c:58:e7:13:0c:42:17:cd:
                    86:b5:1d:12:e9:07:a4:b8:cd:72:d6:78:2f:29:59:
                    58:3e:7e:e8:10:9a:9e:22:56:6f:f9:47:33:2b:07:
                    48:de:f1:c7:1e:d0:7c:ea:cc:c6:c2:20:b3:a6:31:
                    99:ef:6e:7c:ad:19:97:cc:dd:5b:3a:73:9e:7f:33:
                    0f:7b
                Exponent: 65537 (0x10001)
        X509v3 extensions:
            X509v3 Subject Key Identifier: 
                F0:79:58:35:E9:FC:68:0D:EF:4B:4D:C0:17:19:F2:CA:EF:0D:76:AE
            X509v3 Basic Constraints: critical
                CA:FALSE
            Netscape Cert Type: 
                SSL Server
            X509v3 Key Usage: 
                Digital Signature, Non Repudiation, Key Encipherment
            X509v3 Extended Key Usage: 
                TLS Web Server Authentication
            X509v3 Subject Alternative Name: 
                DNS:localhost, IP Address:127.0.0.1, IP Address:0:0:0:0:0:0:0:1
            X509v3 Authority Key Identifier: 
                CE:F8:5C:94:CC:56:AC:E3:F7:97:4E:B7:5E:27:D4:B3:48:EC:DB:BB
    Signature Algorithm: sha512WithRSAEncryption
    Signature Value:
        35:04:97:11:29:a1:02:3e:38:78:20:e8:e8:80:37:de:27:85:
        20:f3:d4:0e:d4:c6:0f:4d:a3:ef:7e:2a:d6:9b:e0:91:15:5f:
        cf:c5:c4:4d:83:7d:89:c9:6b:9f:c4:ec:fc:ff:17:cc:da:18:
        01:a7:12:ec:c5:9d:c4:3d:f9:e9:aa:ce:7b:4c:b6:73:9b:82:
        c7:26:fb:bd:3a:89:62:0f:68:3d:08:f2:97:35:ab:ec:e0:b6:
        ce:df:4b:1f:69:1d:fe:03:82:58:60:cb:b7:0a:b7:88:86:7d:
        83:80:dd:f9:91:fd:d8:2f:23:77:aa:be:68:73:18:e4:d8:94:
        6e:a9:35:29:3f:f9:d9:a5:17:eb:6f:f8:24:68:7c:86:00:d1:
        dd:21:6c:75:b2:19:b7:7f:6d:2c:8c:03:34:f1:61:7d:8a:ba:
        3a:99:bf:46:e7:0d:7a:32:d0:85:4d:c8:70:a5:4f:c2:2e:88:
        84:0a:62:8f:98:97:14:0c:0d:84:fe:75:20:da:25:ee:f4:0f:
        a6:e8:01:1f:62:77:9b:ce:97:dd:74:5a:65:bf:96:26:ca:8a:
        e3:70:9c:80:8a:93:8a:00:7a:b7:1d:a9:19:71:0f:9c:eb:d6:
        df:04:17:52:1d:61:32:24:dd:29:d1:3b:d3:9c:f4:2d:8b:ed:
        65:c4:39:3d
-----BEGIN CERTIFICATE-----
MIIDlzCCAn+gAwIBAgIBATANBgkqhkiG9w0BAQ0FADAUMRIwEAYDVQQDDAlFeGFt
cGxlQ0EwHhcNMjQxMTA0MTUyMzQzWhcNMjUxMTA0MTUyMzQzWjBTMQswCQYDVQQG
EwJJVDEOMAwGA1UECAwFTGF6aW8xDTALBgNVBAcMBFJvbWUxETAPBgNVBAoMCEN5
YmVySVRTMRIwEAYDVQQDDAlsb2NhbGhvc3QwggEiMA0GCSqGSIb3DQEBAQUAA4IB
DwAwggEKAoIBAQDf6lBdfrxyNVmRiTrlK8skUfa4OIQuAtwNv61RyOr/LmY1IOw/
P4Eo6V4S88ht2xgi5I4x/INT83Ei6eNUwvBdYvcO4HwmGED8BWPtK+TKFG2w4WV9
EIv/K31tllBEzKTSw09exM1vZy2j2hBdvOXBQ6jVPEqUbL6s8jCVlG5K6KI9mcJI
qP9MPUafPtQTucz96y7Q15ZyBqG1CY3tTSsjx6YhBa+SHIFwGjw+Py9mxMBf49V2
b2hQ/vI8WOcTDEIXzYa1HRLpB6S4zXLWeC8pWVg+fugQmp4iVm/5RzMrB0je8cce
0HzqzMbCILOmMZnvbnytGZfM3Vs6c55/Mw97AgMBAAGjgbQwgbEwHQYDVR0OBBYE
FPB5WDXp/GgN70tNwBcZ8srvDXauMAwGA1UdEwEB/wQCMAAwEQYJYIZIAYb4QgEB
BAQDAgZAMAsGA1UdDwQEAwIF4DATBgNVHSUEDDAKBggrBgEFBQcDATAsBgNVHREE
JTAjgglsb2NhbGhvc3SHBH8AAAGHEAAAAAAAAAAAAAAAAAAAAAEwHwYDVR0jBBgw
FoAUzvhclMxWrOP3l063XifUs0js27swDQYJKoZIhvcNAQENBQADggEBADUElxEp
oQI+OHgg6OiAN94nhSDz1A7Uxg9No+9+Ktab4JEVX8/FxE2DfYnJa5/E7Pz/F8za
GAGnEuzFncQ9+emqzntMtnObgscm+706iWIPaD0I8pc1q+zgts7fSx9pHf4Dglhg
y7cKt4iGfYOA3fmR/dgvI3eqvmhzGOTYlG6pNSk/+dmlF+tv+CRofIYA0d0hbHWy
Gbd/bSyMAzTxYX2KujqZv0bnDXoy0IVNyHClT8IuiIQKYo+YlxQMDYT+dSDaJe70
D6boAR9id5vOl910WmW/libKiuNwnICKk4oAercdqRlxD5zr1t8EF1IdYTIk3SnR
O9Oc9C2L7WXEOT0=
-----END CERTIFICATE-----
